; Function Attrs: mustprogress uwtable
define void @_ZNK2cv3reg9MapProjec10inverseMapEv(ptr dead_on_unwind noalias nocapture writable writeonly sret(%"struct.cv::Ptr") align 8 %0, ptr noundef nonnull align 8 dereferenceable(80) %1) unnamed_addr #2 align 2 personality ptr @__gxx_personality_v0 {
  %3 = alloca %"class.cv::Matx", align 8
  %4 = alloca %"struct.cv::internal::Matx_FastInvOp", align 1
  %5 = alloca %"class.cv::Matx", align 8
  %6 = alloca %"class.cv::_InputArray", align 8
  %7 = getelementptr inbounds i8, ptr %1, i64 8
  tail call void @llvm.experimental.noalias.scope.decl(metadata !19)
  call void @llvm.lifetime.start.p0(i64 72, ptr nonnull %3)
  call void @llvm.lifetime.start.p0(i64 1, ptr nonnull %4)
  call void @llvm.memset.p0.i64(ptr noundef nonnull align 8 dereferenceable(72) %3, i8 0, i64 72, i1 false), !noalias !19
  %8 = call noundef zeroext i1 @_ZNK2cv8internal14Matx_FastInvOpIdLi3ELi3EEclERKNS_4MatxIdLi3ELi3EEERS4_i(ptr noundef nonnull align 1 dereferenceable(1) %4, ptr noundef nonnull align 8 dereferenceable(72) %7, ptr noundef nonnull align 8 dereferenceable(72) %3, i32 noundef 0), !noalias !19
  br i1 %8, label %9, label %10

9:                                                ; preds = %2
  call void @llvm.memcpy.p0.p0.i64(ptr noundef nonnull align 8 dereferenceable(72) %5, ptr noundef nonnull align 8 dereferenceable(72) %3, i64 72, i1 false)
  br label %11

10:                                               ; preds = %2
  call void @llvm.memset.p0.i64(ptr noundef nonnull align 8 dereferenceable(72) %5, i8 0, i64 72, i1 false), !alias.scope !22
  br label %11

11:                                               ; preds = %10, %9
  call void @llvm.lifetime.end.p0(i64 72, ptr nonnull %3)
  call void @llvm.lifetime.end.p0(i64 1, ptr nonnull %4)
  %12 = call noalias noundef nonnull dereferenceable(80) ptr @_Znwm(i64 noundef 80) #20
  %13 = getelementptr inbounds i8, ptr %6, i64 16
  store i32 -1056833530, ptr %6, align 8
  %14 = getelementptr inbounds i8, ptr %6, i64 8
  store ptr %5, ptr %14, align 8
  store i64 12884901891, ptr %13, align 8
  invoke void @_ZN2cv3reg9MapProjecC1ERKNS_11_InputArrayE(ptr noundef nonnull align 8 dereferenceable(80) %12, ptr noundef nonnull align 8 dereferenceable(24) %6)
          to label %15 unwind label %35

15:                                               ; preds = %11
  store ptr %12, ptr %0, align 8
  %16 = getelementptr inbounds i8, ptr %0, i64 8
  store ptr null, ptr %16, align 8
  %17 = invoke noalias noundef nonnull dereferenceable(24) ptr @_Znwm(i64 noundef 24) #20
          to label %31 unwind label %18

18:                                               ; preds = %15
  %19 = landingpad { ptr, i32 }
          catch ptr null
  %20 = extractvalue { ptr, i32 } %19, 0
  %21 = call ptr @__cxa_begin_catch(ptr %20) #17
  %22 = load ptr, ptr %12, align 8
  %23 = getelementptr inbounds i8, ptr %22, i64 8
  %24 = load ptr, ptr %23, align 8
  call void %24(ptr noundef nonnull align 8 dereferenceable(80) %12) #17
  invoke void @__cxa_rethrow() #18
          to label %30 unwind label %25

25:                                               ; preds = %18
  %26 = landingpad { ptr, i32 }
          cleanup
  invoke void @__cxa_end_catch()
          to label %.body unwind label %27

27:                                               ; preds = %25
  %28 = landingpad { ptr, i32 }
          catch ptr null
  %29 = extractvalue { ptr, i32 } %28, 0
  call void @__clang_call_terminate(ptr %29) #21
  unreachable

30:                                               ; preds = %18
  unreachable

31:                                               ; preds = %15
  %32 = getelementptr inbounds i8, ptr %17, i64 8
  store i32 1, ptr %32, align 8
  %33 = getelementptr inbounds i8, ptr %17, i64 12
  store i32 1, ptr %33, align 4
  store ptr getelementptr inbounds inrange(-16, 40) (i8, ptr @_ZTVSt15_Sp_counted_ptrIPN2cv3reg9MapProjecELN9__gnu_cxx12_Lock_policyE2EE, i64 16), ptr %17, align 8
  %34 = getelementptr inbounds i8, ptr %17, i64 16
  store ptr %12, ptr %34, align 8
  store ptr %17, ptr %16, align 8
  ret void

35:                                               ; preds = %11
  %36 = landingpad { ptr, i32 }
          cleanup
  call void @_ZdlPv(ptr noundef nonnull %12) #19
  br label %.body

.body:                                            ; preds = %25, %35
  %.pn8 = phi { ptr, i32 } [ %36, %35 ], [ %26, %25 ]
  resume { ptr, i32 } %.pn8
}